; Function Attrs: mustprogress uwtable
define dso_local noundef ptr @_ZN4Luau6Parser15reportStatErrorERKNS_8LocationERKNS_8AstArrayIPNS_7AstExprEEERKNS4_IPNS_7AstStatEEEPKcz(ptr noundef nonnull align 8 dereferenceable(1072) %0, ptr noundef nonnull align 4 dereferenceable(16) %1, ptr noundef nonnull align 8 dereferenceable(16) %2, ptr noundef nonnull align 8 dereferenceable(16) %3, ptr noundef %4, ...) local_unnamed_addr #2 align 2 {
  %6 = alloca [1 x %struct.__va_list_tag], align 16
  call void @llvm.lifetime.start.p0(i64 24, ptr nonnull %6) #29
  call void @llvm.va_start.p0(ptr nonnull %6)
  call void @_ZN4Luau6Parser6reportERKNS_8LocationEPKcP13__va_list_tag(ptr noundef nonnull align 8 dereferenceable(1072) %0, ptr noundef nonnull align 4 dereferenceable(16) %1, ptr noundef %4, ptr noundef nonnull %6)
  call void @llvm.va_end.p0(ptr nonnull %6)
  %7 = getelementptr inbounds nuw i8, ptr %0, i64 216
  %8 = load ptr, ptr %7, align 8, !tbaa !297
  %9 = getelementptr inbounds nuw i8, ptr %0, i64 424
  %10 = getelementptr inbounds nuw i8, ptr %0, i64 432
  %11 = load ptr, ptr %10, align 8, !tbaa !24
  %12 = load ptr, ptr %9, align 8, !tbaa !21
  %13 = ptrtoint ptr %11 to i64
  %14 = ptrtoint ptr %12 to i64
  %15 = sub i64 %13, %14
  %16 = sdiv exact i64 %15, 56
  %17 = trunc i64 %16 to i32
  %18 = add i32 %17, -1
  %19 = call noundef ptr @_ZN4Luau9Allocator8allocateEm(ptr noundef nonnull align 8 dereferenceable(16) %8, i64 noundef 72)
  call void @_ZN4Luau12AstStatErrorC1ERKNS_8LocationERKNS_8AstArrayIPNS_7AstExprEEERKNS4_IPNS_7AstStatEEEj(ptr noundef nonnull align 8 dereferenceable(68) %19, ptr noundef nonnull align 4 dereferenceable(16) %1, ptr noundef nonnull align 8 dereferenceable(16) %2, ptr noundef nonnull align 8 dereferenceable(16) %3, i32 noundef %18)
  call void @llvm.lifetime.end.p0(i64 24, ptr nonnull %6) #29
  ret ptr %19
}